target datalayout = "e-m:e-p270:32:32-p271:32:32-p272:64:64-i64:64-i128:128-f80:128-n8:16:32:64-S128"
target triple = "x86_64-pc-linux-gnu"

%class.anon.256 = type { ptr, ptr, ptr, ptr, ptr, ptr }

; Function Attrs: inlinehint mustprogress ssp uwtable
define internal void @"_ZZZN6open3d1t2io21ReadPointCloudFromPLYERKNSt7__cxx1112basic_stringIcSt11char_traitsIcESaIcEEERNS0_8geometry10PointCloudERKNS_2io20ReadPointCloudOptionEENK3$_0clEvENKUlvE8_clEv"(ptr noundef nonnull align 8 dereferenceable(48) %0) #16 align 2 {
  %2 = alloca ptr, align 8
  store ptr %0, ptr %2, align 8, !tbaa !86
  %3 = load ptr, ptr %2, align 8
  %4 = getelementptr inbounds nuw %class.anon.256, ptr %3, i32 0, i32 1
  %5 = load ptr, ptr %4, align 8, !tbaa !1141
  %6 = load ptr, ptr %5, align 8, !tbaa !154
  %7 = getelementptr inbounds nuw %class.anon.256, ptr %3, i32 0, i32 2
  %8 = load ptr, ptr %7, align 8, !tbaa !1143
  %9 = load ptr, ptr %8, align 8, !tbaa !156
  %10 = getelementptr inbounds nuw %class.anon.256, ptr %3, i32 0, i32 3
  %11 = load ptr, ptr %10, align 8, !tbaa !1144
  %12 = load ptr, ptr %11, align 8, !tbaa !156
  %13 = getelementptr inbounds nuw %class.anon.256, ptr %3, i32 0, i32 4
  %14 = load ptr, ptr %13, align 8, !tbaa !1145
  %15 = getelementptr inbounds nuw %class.anon.256, ptr %3, i32 0, i32 5
  %16 = load ptr, ptr %15, align 8, !tbaa !1146
  %17 = load i64, ptr %16, align 8, !tbaa !30
  %18 = call i64 @ply_set_read_cb(ptr noundef %6, ptr noundef %9, ptr noundef %12, ptr noundef @_ZN6open3d1t2io12_GLOBAL__N_121ReadAttributeCallbackImEEiP15t_ply_argument_, ptr noundef %14, i64 noundef %17)
  %19 = getelementptr inbounds nuw %class.anon.256, ptr %3, i32 0, i32 0
  %20 = load ptr, ptr %19, align 8, !tbaa !1147
  store i64 %18, ptr %20, align 8, !tbaa !30
  ret void
}